target datalayout = "e-m:e-p270:32:32-p271:32:32-p272:64:64-i64:64-i128:128-f80:128-n8:16:32:64-S128"
target triple = "x86_64-pc-linux-gnu"

%"class.std::locale" = type { ptr }
%"class.std::ios_base" = type { ptr, i64, i64, i32, i32, i32, ptr, %"struct.std::ios_base::_Words", [8 x %"struct.std::ios_base::_Words"], i32, ptr, %"class.std::locale" }
%"struct.std::ios_base::_Words" = type { ptr, i64 }
%"class.doctest::String" = type { %union.anon.7 }
%union.anon.7 = type { %"struct.doctest::String::view", [8 x i8] }
%"struct.doctest::String::view" = type { ptr, i32, i32 }
%"struct.doctest::ContextOptions" = type <{ ptr, %"class.doctest::String", ptr, %"class.doctest::String", %"class.doctest::String", i32, i32, i32, i32, i32, i8, i8, i8, i8, i8, i8, i8, i8, i8, i8, i8, i8, i8, i8, i8, i8, i8, i8, i8, i8, i8, i8, i8, i8, i8, i8, i8, i8 }>
%"class.std::vector.24" = type { %"struct.std::_Vector_base.25" }
%"struct.std::_Vector_base.25" = type { %"struct.std::_Vector_base<doctest::SubcaseSignature, std::allocator<doctest::SubcaseSignature>>::_Vector_impl" }
%"struct.std::_Vector_base<doctest::SubcaseSignature, std::allocator<doctest::SubcaseSignature>>::_Vector_impl" = type { %"struct.std::_Vector_base<doctest::SubcaseSignature, std::allocator<doctest::SubcaseSignature>>::_Vector_impl_data" }
%"struct.std::_Vector_base<doctest::SubcaseSignature, std::allocator<doctest::SubcaseSignature>>::_Vector_impl_data" = type { ptr, ptr, ptr }
%union.pthread_mutex_t = type { %struct.__pthread_mutex_s }
%struct.__pthread_mutex_s = type { i32, i32, i32, i32, i32, i16, i16, %struct.__pthread_internal_list }
%struct.__pthread_internal_list = type { ptr, ptr }
%"struct.doctest::IReporter" = type { ptr }
%"class.std::mutex" = type { %"class.std::__mutex_base" }
%"class.std::__mutex_base" = type { %union.pthread_mutex_t }
%"struct.doctest::(anonymous namespace)::ConsoleReporter" = type { %"struct.doctest::IReporter", ptr, i8, %"class.std::vector.24", i64, %"class.std::mutex", ptr, ptr }

@.str = private unnamed_addr constant [1 x i8] zeroinitializer, align 1
@_ZN7doctest6detail4g_csE = dso_local global ptr null, align 8
@_ZN7doctest6detail11g_no_colorsE = dso_local global i8 0, align 1
@.str.211 = private unnamed_addr constant [7 x i8] c"[0;31m\00", align 1
@.str.212 = private unnamed_addr constant [7 x i8] c"[0;32m\00", align 1
@.str.213 = private unnamed_addr constant [7 x i8] c"[0;34m\00", align 1
@.str.214 = private unnamed_addr constant [7 x i8] c"[0;36m\00", align 1
@.str.215 = private unnamed_addr constant [7 x i8] c"[0;33m\00", align 1
@.str.216 = private unnamed_addr constant [7 x i8] c"[1;30m\00", align 1
@.str.217 = private unnamed_addr constant [7 x i8] c"[0;37m\00", align 1
@.str.218 = private unnamed_addr constant [7 x i8] c"[1;31m\00", align 1
@.str.219 = private unnamed_addr constant [7 x i8] c"[1;32m\00", align 1
@.str.220 = private unnamed_addr constant [7 x i8] c"[1;37m\00", align 1
@.str.221 = private unnamed_addr constant [4 x i8] c"[0m\00", align 1
@.str.222 = private unnamed_addr constant [2 x i8] c"\1B\00", align 1
@.str.345 = private unnamed_addr constant [11 x i8] c"[doctest] \00", align 1
@.str.451 = private unnamed_addr constant [31 x i8] c"run with \22--help\22 for options\0A\00", align 1

; Function Attrs: inlinehint mustprogress nounwind uwtable
define linkonce_odr dso_local noundef i32 @_ZStorSt12_Ios_IostateS_(i32 noundef %0, i32 noundef %1) #4 comdat {
  %3 = alloca i32, align 4
  %4 = alloca i32, align 4
  store i32 %0, ptr %3, align 4, !tbaa !715
  store i32 %1, ptr %4, align 4, !tbaa !715
  %5 = load i32, ptr %3, align 4, !tbaa !715
  %6 = load i32, ptr %4, align 4, !tbaa !715
  %7 = or i32 %5, %6
  ret i32 %7
}

; Function Attrs: mustprogress nounwind uwtable
define available_externally noundef i32 @_ZNKSt9basic_iosIcSt11char_traitsIcEE7rdstateEv(ptr noundef nonnull align 8 dereferenceable(264) %0) #1 align 2 {
  %2 = alloca ptr, align 8
  store ptr %0, ptr %2, align 8, !tbaa !237
  %3 = load ptr, ptr %2, align 8
  %4 = getelementptr inbounds nuw %"class.std::ios_base", ptr %3, i32 0, i32 5
  %5 = load i32, ptr %4, align 8, !tbaa !716
  ret i32 %5
}

; Function Attrs: mustprogress nounwind uwtable
define dso_local noundef ptr @_ZN7doctest17getContextOptionsEv() #1 {
  %1 = load ptr, ptr @_ZN7doctest6detail4g_csE, align 8, !tbaa !84
  ret ptr %1
}

; Function Attrs: mustprogress nounwind uwtable
define linkonce_odr dso_local noundef i64 @_ZNSt11char_traitsIcE6lengthEPKc(ptr noundef %0) #1 comdat align 2 {
  %2 = alloca ptr, align 8
  store ptr %0, ptr %2, align 8, !tbaa !14
  %3 = load ptr, ptr %2, align 8, !tbaa !14
  %4 = call i64 @strlen(ptr noundef %3) #7
  ret i64 %4
}

; Function Attrs: mustprogress uwtable
define available_externally void @_ZNSt9basic_iosIcSt11char_traitsIcEE8setstateESt12_Ios_Iostate(ptr noundef nonnull align 8 dereferenceable(264) %0, i32 noundef %1) #8 align 2 {
  %3 = alloca ptr, align 8
  %4 = alloca i32, align 4
  store ptr %0, ptr %3, align 8, !tbaa !237
  store i32 %1, ptr %4, align 4, !tbaa !715
  %5 = load ptr, ptr %3, align 8
  %6 = call noundef i32 @_ZNKSt9basic_iosIcSt11char_traitsIcEE7rdstateEv(ptr noundef nonnull align 8 dereferenceable(264) %5)
  %7 = load i32, ptr %4, align 4, !tbaa !715
  %8 = call noundef i32 @_ZStorSt12_Ios_IostateS_(i32 noundef %6, i32 noundef %7)
  call void @_ZNSt9basic_iosIcSt11char_traitsIcEE5clearESt12_Ios_Iostate(ptr noundef nonnull align 8 dereferenceable(264) %5, i32 noundef %8)
  ret void
}

; Function Attrs: mustprogress uwtable
define internal void @_ZN7doctest12_GLOBAL__N_115color_to_streamERSoNS_5Color4EnumE(ptr noundef nonnull align 8 dereferenceable(8) %0, i32 noundef %1) #8 {
  %3 = alloca ptr, align 8
  %4 = alloca i32, align 4
  %5 = alloca ptr, align 8
  store ptr %0, ptr %3, align 8, !tbaa !67
  store i32 %1, ptr %4, align 4, !tbaa !73
  %6 = load i8, ptr @_ZN7doctest6detail11g_no_colorsE, align 1, !tbaa !16, !range !36, !noundef !37
  %7 = trunc i8 %6 to i1
  br i1 %7, label %18, label %8

8:                                                ; preds = %2
  %9 = call i32 @isatty(i32 noundef 1) #7
  %10 = icmp eq i32 %9, 0
  br i1 %10, label %11, label %19

11:                                               ; preds = %8
  %12 = call noundef ptr @_ZN7doctest17getContextOptionsEv()
  %13 = getelementptr inbounds nuw %"struct.doctest::ContextOptions", ptr %12, i32 0, i32 22
  %14 = load i8, ptr %13, align 8, !tbaa !75, !range !36, !noundef !37
  %15 = trunc i8 %14 to i1
  %16 = zext i1 %15 to i32
  %17 = icmp eq i32 %16, 0
  br i1 %17, label %18, label %19

18:                                               ; preds = %11, %2
  br label %38

19:                                               ; preds = %11, %8
  call void @llvm.lifetime.start.p0(i64 8, ptr %5) #7
  store ptr @.str, ptr %5, align 8, !tbaa !14
  %20 = load i32, ptr %4, align 4, !tbaa !73
  switch i32 %20, label %32 [
    i32 2, label %21
    i32 3, label %22
    i32 4, label %23
    i32 5, label %24
    i32 6, label %25
    i32 7, label %26
    i32 23, label %27
    i32 18, label %28
    i32 19, label %29
    i32 17, label %30
    i32 16, label %31
    i32 0, label %31
    i32 1, label %31
  ]

21:                                               ; preds = %19
  store ptr @.str.211, ptr %5, align 8, !tbaa !14
  br label %33

22:                                               ; preds = %19
  store ptr @.str.212, ptr %5, align 8, !tbaa !14
  br label %33

23:                                               ; preds = %19
  store ptr @.str.213, ptr %5, align 8, !tbaa !14
  br label %33

24:                                               ; preds = %19
  store ptr @.str.214, ptr %5, align 8, !tbaa !14
  br label %33

25:                                               ; preds = %19
  store ptr @.str.215, ptr %5, align 8, !tbaa !14
  br label %33

26:                                               ; preds = %19
  store ptr @.str.216, ptr %5, align 8, !tbaa !14
  br label %33

27:                                               ; preds = %19
  store ptr @.str.217, ptr %5, align 8, !tbaa !14
  br label %33

28:                                               ; preds = %19
  store ptr @.str.218, ptr %5, align 8, !tbaa !14
  br label %33

29:                                               ; preds = %19
  store ptr @.str.219, ptr %5, align 8, !tbaa !14
  br label %33

30:                                               ; preds = %19
  store ptr @.str.220, ptr %5, align 8, !tbaa !14
  br label %33

31:                                               ; preds = %19, %19, %19
  br label %32

32:                                               ; preds = %19, %31
  store ptr @.str.221, ptr %5, align 8, !tbaa !14
  br label %33

33:                                               ; preds = %32, %30, %29, %28, %27, %26, %25, %24, %23, %22, %21
  %34 = load ptr, ptr %3, align 8, !tbaa !67
  %35 = call noundef nonnull align 8 dereferenceable(8) ptr @_ZStlsISt11char_traitsIcEERSt13basic_ostreamIcT_ES5_PKc(ptr noundef nonnull align 8 dereferenceable(8) %34, ptr noundef @.str.222)
  %36 = load ptr, ptr %5, align 8, !tbaa !14
  %37 = call noundef nonnull align 8 dereferenceable(8) ptr @_ZStlsISt11char_traitsIcEERSt13basic_ostreamIcT_ES5_PKc(ptr noundef nonnull align 8 dereferenceable(8) %35, ptr noundef %36)
  call void @llvm.lifetime.end.p0(i64 8, ptr %5) #7
  br label %38

38:                                               ; preds = %33, %18
  ret void
}

; Function Attrs: inlinehint mustprogress uwtable
define available_externally noundef nonnull align 8 dereferenceable(8) ptr @_ZStlsISt11char_traitsIcEERSt13basic_ostreamIcT_ES5_PKc(ptr noundef nonnull align 8 dereferenceable(8) %0, ptr noundef %1) #9 {
  %3 = alloca ptr, align 8
  %4 = alloca ptr, align 8
  store ptr %0, ptr %3, align 8, !tbaa !67
  store ptr %1, ptr %4, align 8, !tbaa !14
  %5 = load ptr, ptr %4, align 8, !tbaa !14
  %6 = icmp ne ptr %5, null
  br i1 %6, label %13, label %7

7:                                                ; preds = %2
  %8 = load ptr, ptr %3, align 8, !tbaa !67
  %9 = load ptr, ptr %8, align 8, !tbaa !69
  %10 = getelementptr i8, ptr %9, i64 -24
  %11 = load i64, ptr %10, align 8
  %12 = getelementptr inbounds i8, ptr %8, i64 %11
  call void @_ZNSt9basic_iosIcSt11char_traitsIcEE8setstateESt12_Ios_Iostate(ptr noundef nonnull align 8 dereferenceable(264) %12, i32 noundef 1)
  br label %19

13:                                               ; preds = %2
  %14 = load ptr, ptr %3, align 8, !tbaa !67
  %15 = load ptr, ptr %4, align 8, !tbaa !14
  %16 = load ptr, ptr %4, align 8, !tbaa !14
  %17 = call noundef i64 @_ZNSt11char_traitsIcE6lengthEPKc(ptr noundef %16)
  %18 = call noundef nonnull align 8 dereferenceable(8) ptr @_ZSt16__ostream_insertIcSt11char_traitsIcEERSt13basic_ostreamIT_T0_ES6_PKS3_l(ptr noundef nonnull align 8 dereferenceable(8) %14, ptr noundef %15, i64 noundef %17)
  br label %19

19:                                               ; preds = %13, %7
  %20 = load ptr, ptr %3, align 8, !tbaa !67
  ret ptr %20
}

; Function Attrs: mustprogress uwtable
define dso_local noundef nonnull align 8 dereferenceable(8) ptr @_ZN7doctest5ColorlsERSoNS0_4EnumE(ptr noundef nonnull align 8 dereferenceable(8) %0, i32 noundef %1) #8 {
  %3 = alloca ptr, align 8
  %4 = alloca i32, align 4
  store ptr %0, ptr %3, align 8, !tbaa !67
  store i32 %1, ptr %4, align 4, !tbaa !73
  %5 = load ptr, ptr %3, align 8, !tbaa !67
  %6 = load i32, ptr %4, align 4, !tbaa !73
  call void @_ZN7doctest12_GLOBAL__N_115color_to_streamERSoNS_5Color4EnumE(ptr noundef nonnull align 8 dereferenceable(8) %5, i32 noundef %6)
  %7 = load ptr, ptr %3, align 8, !tbaa !67
  ret ptr %7
}

; Function Attrs: mustprogress uwtable
define internal void @_ZN7doctest12_GLOBAL__N_115ConsoleReporter10printIntroEv(ptr noundef nonnull align 8 dereferenceable(112) %0) #8 align 2 {
  %2 = alloca ptr, align 8
  store ptr %0, ptr %2, align 8, !tbaa !1042
  %3 = load ptr, ptr %2, align 8
  %4 = getelementptr inbounds nuw %"struct.doctest::(anonymous namespace)::ConsoleReporter", ptr %3, i32 0, i32 6
  %5 = load ptr, ptr %4, align 8, !tbaa !1044
  %6 = getelementptr inbounds nuw %"struct.doctest::ContextOptions", ptr %5, i32 0, i32 19
  %7 = load i8, ptr %6, align 1, !tbaa !322, !range !36, !noundef !37
  %8 = trunc i8 %7 to i1
  %9 = zext i1 %8 to i32
  %10 = icmp eq i32 %9, 0
  br i1 %10, label %11, label %18

11:                                               ; preds = %1
  call void @_ZN7doctest12_GLOBAL__N_115ConsoleReporter12printVersionEv(ptr noundef nonnull align 8 dereferenceable(112) %3)
  %12 = getelementptr inbounds nuw %"struct.doctest::(anonymous namespace)::ConsoleReporter", ptr %3, i32 0, i32 1
  %13 = load ptr, ptr %12, align 8, !tbaa !1046
  %14 = call noundef nonnull align 8 dereferenceable(8) ptr @_ZN7doctest5ColorlsERSoNS0_4EnumE(ptr noundef nonnull align 8 dereferenceable(8) %13, i32 noundef 5)
  %15 = call noundef nonnull align 8 dereferenceable(8) ptr @_ZStlsISt11char_traitsIcEERSt13basic_ostreamIcT_ES5_PKc(ptr noundef nonnull align 8 dereferenceable(8) %14, ptr noundef @.str.345)
  %16 = call noundef nonnull align 8 dereferenceable(8) ptr @_ZN7doctest5ColorlsERSoNS0_4EnumE(ptr noundef nonnull align 8 dereferenceable(8) %15, i32 noundef 0)
  %17 = call noundef nonnull align 8 dereferenceable(8) ptr @_ZStlsISt11char_traitsIcEERSt13basic_ostreamIcT_ES5_PKc(ptr noundef nonnull align 8 dereferenceable(8) %16, ptr noundef @.str.451)
  br label %18

18:                                               ; preds = %11, %1
  ret void
}

; Function Attrs: mustprogress uwtable
define internal void @_ZN7doctest12_GLOBAL__N_115ConsoleReporter14test_run_startEv(ptr noundef nonnull align 8 dereferenceable(112) %0) unnamed_addr #8 align 2 {
  %2 = alloca ptr, align 8
  store ptr %0, ptr %2, align 8, !tbaa !1042
  %3 = load ptr, ptr %2, align 8
  %4 = getelementptr inbounds nuw %"struct.doctest::(anonymous namespace)::ConsoleReporter", ptr %3, i32 0, i32 6
  %5 = load ptr, ptr %4, align 8, !tbaa !1044
  %6 = getelementptr inbounds nuw %"struct.doctest::ContextOptions", ptr %5, i32 0, i32 14
  %7 = load i8, ptr %6, align 8, !tbaa !317, !range !36, !noundef !37
  %8 = trunc i8 %7 to i1
  br i1 %8, label %10, label %9

9:                                                ; preds = %1
  call void @_ZN7doctest12_GLOBAL__N_115ConsoleReporter10printIntroEv(ptr noundef nonnull align 8 dereferenceable(112) %3)
  br label %10

10:                                               ; preds = %9, %1
  ret void
}