; Function Attrs: mustprogress uwtable
define internal void @_ZN7doctest12_GLOBAL__N_115ConsoleReporter14test_run_startEv(ptr noundef nonnull readonly align 8 captures(none) dereferenceable(112) %0) unnamed_addr #8 align 2 {
  %2 = getelementptr inbounds nuw i8, ptr %0, i64 96
  %3 = load ptr, ptr %2, align 8, !tbaa !690
  %4 = getelementptr inbounds nuw i8, ptr %3, i64 112
  %5 = load i8, ptr %4, align 8, !tbaa !330, !range !22, !noundef !23
  %6 = trunc nuw i8 %5 to i1
  br i1 %6, label %_ZN7doctest12_GLOBAL__N_115ConsoleReporter10printIntroEv.exit, label %7

7:                                                ; preds = %1
  %8 = getelementptr inbounds nuw i8, ptr %3, i64 117
  %9 = load i8, ptr %8, align 1, !tbaa !335, !range !22, !noundef !23
  %10 = icmp eq i8 %9, 0
  br i1 %10, label %11, label %_ZN7doctest12_GLOBAL__N_115ConsoleReporter10printIntroEv.exit

11:                                               ; preds = %7
  %12 = getelementptr inbounds nuw i8, ptr %0, i64 8
  %.val.i = load ptr, ptr %12, align 8
  %13 = getelementptr i8, ptr %3, i64 118
  %.val1.val.i = load i8, ptr %13, align 2, !tbaa !336, !range !22, !noundef !23
  tail call fastcc void @_ZN7doctest12_GLOBAL__N_115ConsoleReporter12printVersionEv(ptr %.val.i, i8 %.val1.val.i)
  %14 = load ptr, ptr %12, align 8, !tbaa !692
  %15 = load i8, ptr @_ZN7doctest6detail11g_no_colorsE, align 1, !tbaa !10, !range !22, !noundef !23
  %16 = trunc nuw i8 %15 to i1
  br i1 %16, label %_ZN7doctest5ColorlsERSoNS0_4EnumE.exit.i, label %17

17:                                               ; preds = %11
  %18 = tail call i32 @isatty(i32 noundef 1) #49
  %19 = icmp eq i32 %18, 0
  br i1 %19, label %20, label %25

20:                                               ; preds = %17
  %21 = load ptr, ptr @_ZN7doctest6detail4g_csE, align 8, !tbaa !73
  %22 = getelementptr inbounds nuw i8, ptr %21, i64 120
  %23 = load i8, ptr %22, align 8, !tbaa !75, !range !22, !noundef !23
  %24 = icmp eq i8 %23, 0
  br i1 %24, label %_ZN7doctest5ColorlsERSoNS0_4EnumE.exit.i, label %25

25:                                               ; preds = %20, %17
  %26 = tail call noundef nonnull align 8 dereferenceable(8) ptr @_ZSt16__ostream_insertIcSt11char_traitsIcEERSt13basic_ostreamIT_T0_ES6_PKS3_l(ptr noundef nonnull align 8 dereferenceable(8) %14, ptr noundef nonnull @.str.222, i64 noundef 1)
  %27 = tail call noundef nonnull align 8 dereferenceable(8) ptr @_ZSt16__ostream_insertIcSt11char_traitsIcEERSt13basic_ostreamIT_T0_ES6_PKS3_l(ptr noundef nonnull align 8 dereferenceable(8) %14, ptr noundef nonnull @.str.214, i64 noundef 6)
  br label %_ZN7doctest5ColorlsERSoNS0_4EnumE.exit.i

_ZN7doctest5ColorlsERSoNS0_4EnumE.exit.i:         ; preds = %25, %20, %11
  %28 = tail call noundef nonnull align 8 dereferenceable(8) ptr @_ZSt16__ostream_insertIcSt11char_traitsIcEERSt13basic_ostreamIT_T0_ES6_PKS3_l(ptr noundef nonnull align 8 dereferenceable(8) %14, ptr noundef nonnull @.str.345, i64 noundef 10)
  %29 = load i8, ptr @_ZN7doctest6detail11g_no_colorsE, align 1, !tbaa !10, !range !22, !noundef !23
  %30 = trunc nuw i8 %29 to i1
  br i1 %30, label %_ZN7doctest5ColorlsERSoNS0_4EnumE.exit2.i, label %31

31:                                               ; preds = %_ZN7doctest5ColorlsERSoNS0_4EnumE.exit.i
  %32 = tail call i32 @isatty(i32 noundef 1) #49
  %33 = icmp eq i32 %32, 0
  br i1 %33, label %34, label %39

34:                                               ; preds = %31
  %35 = load ptr, ptr @_ZN7doctest6detail4g_csE, align 8, !tbaa !73
  %36 = getelementptr inbounds nuw i8, ptr %35, i64 120
  %37 = load i8, ptr %36, align 8, !tbaa !75, !range !22, !noundef !23
  %38 = icmp eq i8 %37, 0
  br i1 %38, label %_ZN7doctest5ColorlsERSoNS0_4EnumE.exit2.i, label %39

39:                                               ; preds = %34, %31
  %40 = tail call noundef nonnull align 8 dereferenceable(8) ptr @_ZSt16__ostream_insertIcSt11char_traitsIcEERSt13basic_ostreamIT_T0_ES6_PKS3_l(ptr noundef nonnull align 8 dereferenceable(8) %14, ptr noundef nonnull @.str.222, i64 noundef 1)
  %41 = tail call noundef nonnull align 8 dereferenceable(8) ptr @_ZSt16__ostream_insertIcSt11char_traitsIcEERSt13basic_ostreamIT_T0_ES6_PKS3_l(ptr noundef nonnull align 8 dereferenceable(8) %14, ptr noundef nonnull @.str.221, i64 noundef 3)
  br label %_ZN7doctest5ColorlsERSoNS0_4EnumE.exit2.i

_ZN7doctest5ColorlsERSoNS0_4EnumE.exit2.i:        ; preds = %39, %34, %_ZN7doctest5ColorlsERSoNS0_4EnumE.exit.i
  %42 = tail call noundef nonnull align 8 dereferenceable(8) ptr @_ZSt16__ostream_insertIcSt11char_traitsIcEERSt13basic_ostreamIT_T0_ES6_PKS3_l(ptr noundef nonnull align 8 dereferenceable(8) %14, ptr noundef nonnull @.str.451, i64 noundef 30)
  br label %_ZN7doctest12_GLOBAL__N_115ConsoleReporter10printIntroEv.exit

_ZN7doctest12_GLOBAL__N_115ConsoleReporter10printIntroEv.exit: ; preds = %_ZN7doctest5ColorlsERSoNS0_4EnumE.exit2.i, %7, %1
  ret void
}